target datalayout = "e-m:e-p270:32:32-p271:32:32-p272:64:64-i64:64-i128:128-f80:128-n8:16:32:64-S128"
target triple = "x86_64-pc-linux-gnu"

%struct.stbte__colorrect = type { i32, i32, i32, i32, i32 }
%struct.stbte__panel = type { i32, i32, i32, i32, i32, i32, i32, i32 }
%struct.stbte__ui_t = type { i32, i32, i32, i32, i32, i32, i32, i32, i32, i32, i32, i32, i32, i32, [2 x i32], [256 x %struct.stbte__colorrect], i32, i32, i32, i32, i32, i32, i32, i32, i32, i32, i32, i32, i32, i32, i32, i32, i32, i32, i32, i32, i32, i32, i32, i32, i32, i32, i32, i32, i32, i32, i32, i32, i32, i32, i32, i32, i32, i32, i32, i32, i32, float, ptr, float, [7 x %struct.stbte__panel], [65536 x [8 x i16]], [65536 x [1 x float]], i32, i32, ptr, i32, i32, i32, i32 }

; Function Attrs: nounwind uwtable
define void @stbte__set_event(i32 noundef %0, i32 noundef %1, i32 noundef %2) #0 {
  %4 = alloca i32, align 4
  %5 = alloca i32, align 4
  %6 = alloca i32, align 4
  store i32 %0, ptr %4, align 4, !tbaa !13
  store i32 %1, ptr %5, align 4, !tbaa !13
  store i32 %2, ptr %6, align 4, !tbaa !13
  %7 = load i32, ptr %4, align 4, !tbaa !13
  store i32 %7, ptr getelementptr inbounds nuw (%struct.stbte__ui_t, ptr @stbte__ui, i32 0, i32 5), align 4, !tbaa !110
  %8 = load i32, ptr %5, align 4, !tbaa !13
  store i32 %8, ptr getelementptr inbounds nuw (%struct.stbte__ui_t, ptr @stbte__ui, i32 0, i32 6), align 8, !tbaa !114
  %9 = load i32, ptr %6, align 4, !tbaa !13
  store i32 %9, ptr getelementptr inbounds nuw (%struct.stbte__ui_t, ptr @stbte__ui, i32 0, i32 7), align 4, !tbaa !115
  %10 = load i32, ptr %5, align 4, !tbaa !13
  %11 = load i32, ptr getelementptr inbounds nuw (%struct.stbte__ui_t, ptr @stbte__ui, i32 0, i32 29), align 4, !tbaa !232
  %12 = sub nsw i32 %10, %11
  store i32 %12, ptr getelementptr inbounds nuw (%struct.stbte__ui_t, ptr @stbte__ui, i32 0, i32 8), align 8, !tbaa !233
  %13 = load i32, ptr %6, align 4, !tbaa !13
  %14 = load i32, ptr getelementptr inbounds nuw (%struct.stbte__ui_t, ptr @stbte__ui, i32 0, i32 30), align 8, !tbaa !234
  %15 = sub nsw i32 %13, %14
  store i32 %15, ptr getelementptr inbounds nuw (%struct.stbte__ui_t, ptr @stbte__ui, i32 0, i32 9), align 4, !tbaa !235
  %16 = load i32, ptr %5, align 4, !tbaa !13
  store i32 %16, ptr getelementptr inbounds nuw (%struct.stbte__ui_t, ptr @stbte__ui, i32 0, i32 29), align 4, !tbaa !232
  %17 = load i32, ptr %6, align 4, !tbaa !13
  store i32 %17, ptr getelementptr inbounds nuw (%struct.stbte__ui_t, ptr @stbte__ui, i32 0, i32 30), align 8, !tbaa !234
  %18 = load i32, ptr getelementptr inbounds nuw (%struct.stbte__ui_t, ptr @stbte__ui, i32 0, i32 8), align 8, !tbaa !233
  %19 = load i32, ptr getelementptr inbounds nuw (%struct.stbte__ui_t, ptr @stbte__ui, i32 0, i32 31), align 4, !tbaa !112
  %20 = add nsw i32 %19, %18
  store i32 %20, ptr getelementptr inbounds nuw (%struct.stbte__ui_t, ptr @stbte__ui, i32 0, i32 31), align 4, !tbaa !112
  %21 = load i32, ptr getelementptr inbounds nuw (%struct.stbte__ui_t, ptr @stbte__ui, i32 0, i32 9), align 4, !tbaa !235
  %22 = load i32, ptr getelementptr inbounds nuw (%struct.stbte__ui_t, ptr @stbte__ui, i32 0, i32 32), align 8, !tbaa !113
  %23 = add nsw i32 %22, %21
  store i32 %23, ptr getelementptr inbounds nuw (%struct.stbte__ui_t, ptr @stbte__ui, i32 0, i32 32), align 8, !tbaa !113
  ret void
}