; Function Attrs: mustprogress nofree norecurse nosync nounwind willreturn memory(readwrite, argmem: none, inaccessiblemem: none) uwtable
define void @stbte__set_event(i32 noundef %0, i32 noundef %1, i32 noundef %2) local_unnamed_addr #18 {
  store i32 %0, ptr getelementptr inbounds nuw (i8, ptr @stbte__ui, i64 20), align 4, !tbaa !95
  store i32 %1, ptr getelementptr inbounds nuw (i8, ptr @stbte__ui, i64 24), align 8, !tbaa !99
  store i32 %2, ptr getelementptr inbounds nuw (i8, ptr @stbte__ui, i64 28), align 4, !tbaa !100
  %4 = load i32, ptr getelementptr inbounds nuw (i8, ptr @stbte__ui, i64 5236), align 4, !tbaa !211
  %5 = sub nsw i32 %1, %4
  store i32 %5, ptr getelementptr inbounds nuw (i8, ptr @stbte__ui, i64 32), align 8, !tbaa !212
  %6 = load i32, ptr getelementptr inbounds nuw (i8, ptr @stbte__ui, i64 5240), align 8, !tbaa !213
  %7 = sub nsw i32 %2, %6
  store i32 %7, ptr getelementptr inbounds nuw (i8, ptr @stbte__ui, i64 36), align 4, !tbaa !214
  store i32 %1, ptr getelementptr inbounds nuw (i8, ptr @stbte__ui, i64 5236), align 4, !tbaa !211
  store i32 %2, ptr getelementptr inbounds nuw (i8, ptr @stbte__ui, i64 5240), align 8, !tbaa !213
  %8 = load i32, ptr getelementptr inbounds nuw (i8, ptr @stbte__ui, i64 5244), align 4, !tbaa !97
  %9 = add nsw i32 %8, %5
  store i32 %9, ptr getelementptr inbounds nuw (i8, ptr @stbte__ui, i64 5244), align 4, !tbaa !97
  %10 = load i32, ptr getelementptr inbounds nuw (i8, ptr @stbte__ui, i64 5248), align 8, !tbaa !98
  %11 = add nsw i32 %10, %7
  store i32 %11, ptr getelementptr inbounds nuw (i8, ptr @stbte__ui, i64 5248), align 8, !tbaa !98
  ret void
}